target datalayout = "e-m:e-p270:32:32-p271:32:32-p272:64:64-i64:64-i128:128-f80:128-n8:16:32:64-S128"
target triple = "x86_64-pc-linux-gnu"

%struct.http2_session_data = type { %struct.http2_stream_data, ptr, ptr, ptr, ptr }
%struct.http2_stream_data = type { ptr, ptr, ptr, i32, i32 }

@.str.10 = private unnamed_addr constant [16 x i8] c"Fatal error: %s\00", align 1
@.str.11 = private unnamed_addr constant [35 x i8] c"Fatal error: evbuffer_drain failed\00", align 1

; Function Attrs: nounwind uwtable
define internal i32 @session_send(ptr noundef %0) #0 {
  %2 = alloca i32, align 4
  %3 = alloca ptr, align 8
  %4 = alloca i32, align 4
  %5 = alloca i32, align 4
  store ptr %0, ptr %3, align 8, !tbaa !44
  call void @llvm.lifetime.start.p0(i64 4, ptr %4) #11
  %6 = load ptr, ptr %3, align 8, !tbaa !44
  %7 = getelementptr inbounds nuw %struct.http2_session_data, ptr %6, i32 0, i32 3
  %8 = load ptr, ptr %7, align 8, !tbaa !55
  %9 = call i32 @nghttp2_session_send(ptr noundef %8)
  store i32 %9, ptr %4, align 4, !tbaa !4
  %10 = load i32, ptr %4, align 4, !tbaa !4
  %11 = icmp ne i32 %10, 0
  br i1 %11, label %12, label %15

12:                                               ; preds = %1
  %13 = load i32, ptr %4, align 4, !tbaa !4
  %14 = call ptr @nghttp2_strerror(i32 noundef %13)
  call void (ptr, ...) @warnx(ptr noundef @.str.10, ptr noundef %14)
  store i32 -1, ptr %2, align 4
  store i32 1, ptr %5, align 4
  br label %16

15:                                               ; preds = %1
  store i32 0, ptr %2, align 4
  store i32 1, ptr %5, align 4
  br label %16

16:                                               ; preds = %15, %12
  call void @llvm.lifetime.end.p0(i64 4, ptr %4) #11
  %17 = load i32, ptr %2, align 4
  ret i32 %17
}

; Function Attrs: nounwind uwtable
define internal i32 @session_recv(ptr noundef %0) #0 {
  %2 = alloca i32, align 4
  %3 = alloca ptr, align 8
  %4 = alloca i64, align 8
  %5 = alloca ptr, align 8
  %6 = alloca i64, align 8
  %7 = alloca ptr, align 8
  %8 = alloca i32, align 4
  store ptr %0, ptr %3, align 8, !tbaa !44
  call void @llvm.lifetime.start.p0(i64 8, ptr %4) #11
  call void @llvm.lifetime.start.p0(i64 8, ptr %5) #11
  %9 = load ptr, ptr %3, align 8, !tbaa !44
  %10 = getelementptr inbounds nuw %struct.http2_session_data, ptr %9, i32 0, i32 1
  %11 = load ptr, ptr %10, align 8, !tbaa !46
  %12 = call ptr @bufferevent_get_input(ptr noundef %11)
  store ptr %12, ptr %5, align 8, !tbaa !58
  call void @llvm.lifetime.start.p0(i64 8, ptr %6) #11
  %13 = load ptr, ptr %5, align 8, !tbaa !58
  %14 = call i64 @evbuffer_get_length(ptr noundef %13)
  store i64 %14, ptr %6, align 8, !tbaa !60
  call void @llvm.lifetime.start.p0(i64 8, ptr %7) #11
  %15 = load ptr, ptr %5, align 8, !tbaa !58
  %16 = call ptr @evbuffer_pullup(ptr noundef %15, i64 noundef -1)
  store ptr %16, ptr %7, align 8, !tbaa !15
  %17 = load ptr, ptr %3, align 8, !tbaa !44
  %18 = getelementptr inbounds nuw %struct.http2_session_data, ptr %17, i32 0, i32 3
  %19 = load ptr, ptr %18, align 8, !tbaa !55
  %20 = load ptr, ptr %7, align 8, !tbaa !15
  %21 = load i64, ptr %6, align 8, !tbaa !60
  %22 = call i64 @nghttp2_session_mem_recv2(ptr noundef %19, ptr noundef %20, i64 noundef %21)
  store i64 %22, ptr %4, align 8, !tbaa !60
  %23 = load i64, ptr %4, align 8, !tbaa !60
  %24 = icmp slt i64 %23, 0
  br i1 %24, label %25, label %29

25:                                               ; preds = %1
  %26 = load i64, ptr %4, align 8, !tbaa !60
  %27 = trunc i64 %26 to i32
  %28 = call ptr @nghttp2_strerror(i32 noundef %27)
  call void (ptr, ...) @warnx(ptr noundef @.str.10, ptr noundef %28)
  store i32 -1, ptr %2, align 4
  store i32 1, ptr %8, align 4
  br label %41

29:                                               ; preds = %1
  %30 = load ptr, ptr %5, align 8, !tbaa !58
  %31 = load i64, ptr %4, align 8, !tbaa !60
  %32 = call i32 @evbuffer_drain(ptr noundef %30, i64 noundef %31)
  %33 = icmp ne i32 %32, 0
  br i1 %33, label %34, label %35

34:                                               ; preds = %29
  call void (ptr, ...) @warnx(ptr noundef @.str.11)
  store i32 -1, ptr %2, align 4
  store i32 1, ptr %8, align 4
  br label %41

35:                                               ; preds = %29
  %36 = load ptr, ptr %3, align 8, !tbaa !44
  %37 = call i32 @session_send(ptr noundef %36)
  %38 = icmp ne i32 %37, 0
  br i1 %38, label %39, label %40

39:                                               ; preds = %35
  store i32 -1, ptr %2, align 4
  store i32 1, ptr %8, align 4
  br label %41

40:                                               ; preds = %35
  store i32 0, ptr %2, align 4
  store i32 1, ptr %8, align 4
  br label %41

41:                                               ; preds = %40, %39, %34, %25
  call void @llvm.lifetime.end.p0(i64 8, ptr %7) #11
  call void @llvm.lifetime.end.p0(i64 8, ptr %6) #11
  call void @llvm.lifetime.end.p0(i64 8, ptr %5) #11
  call void @llvm.lifetime.end.p0(i64 8, ptr %4) #11
  %42 = load i32, ptr %2, align 4
  ret i32 %42
}

; Function Attrs: nounwind uwtable
define internal void @readcb(ptr noundef %0, ptr noundef %1) #0 {
  %3 = alloca ptr, align 8
  %4 = alloca ptr, align 8
  %5 = alloca ptr, align 8
  %6 = alloca i32, align 4
  store ptr %0, ptr %3, align 8, !tbaa !54
  store ptr %1, ptr %4, align 8, !tbaa !42
  call void @llvm.lifetime.start.p0(i64 8, ptr %5) #11
  %7 = load ptr, ptr %4, align 8, !tbaa !42
  store ptr %7, ptr %5, align 8, !tbaa !44
  %8 = load ptr, ptr %5, align 8, !tbaa !44
  %9 = call i32 @session_recv(ptr noundef %8)
  %10 = icmp ne i32 %9, 0
  br i1 %10, label %11, label %13

11:                                               ; preds = %2
  %12 = load ptr, ptr %5, align 8, !tbaa !44
  call void @delete_http2_session_data(ptr noundef %12)
  store i32 1, ptr %6, align 4
  br label %14

13:                                               ; preds = %2
  store i32 0, ptr %6, align 4
  br label %14

14:                                               ; preds = %13, %11
  call void @llvm.lifetime.end.p0(i64 8, ptr %5) #11
  %15 = load i32, ptr %6, align 4
  switch i32 %15, label %17 [
    i32 0, label %16
    i32 1, label %16
  ]

16:                                               ; preds = %14, %14
  ret void

17:                                               ; preds = %14
  unreachable
}