; Function Attrs: nounwind uwtable
define internal void @readcb(ptr readnone captures(none) %0, ptr noundef captures(none) %1) #0 {
  %3 = getelementptr inbounds nuw i8, ptr %1, i64 32
  %4 = load ptr, ptr %3, align 8, !tbaa !36
  %5 = tail call ptr @bufferevent_get_input(ptr noundef %4) #21
  %6 = tail call i64 @evbuffer_get_length(ptr noundef %5) #21
  %7 = tail call ptr @evbuffer_pullup(ptr noundef %5, i64 noundef -1) #21
  %8 = getelementptr inbounds nuw i8, ptr %1, i64 48
  %9 = load ptr, ptr %8, align 8, !tbaa !38
  %10 = tail call i64 @nghttp2_session_mem_recv2(ptr noundef %9, ptr noundef %7, i64 noundef %6) #21
  %11 = icmp slt i64 %10, 0
  br i1 %11, label %12, label %15

12:                                               ; preds = %2
  %13 = trunc i64 %10 to i32
  %14 = tail call ptr @nghttp2_strerror(i32 noundef %13) #21
  tail call void (ptr, ...) @warnx(ptr noundef nonnull @.str.10, ptr noundef %14) #21
  br label %21

15:                                               ; preds = %2
  %16 = tail call i32 @evbuffer_drain(ptr noundef %5, i64 noundef %10) #21
  %.not.i = icmp eq i32 %16, 0
  br i1 %.not.i, label %18, label %17

17:                                               ; preds = %15
  tail call void (ptr, ...) @warnx(ptr noundef nonnull @.str.11) #21
  br label %21

18:                                               ; preds = %15
  %.val.i = load ptr, ptr %8, align 8, !tbaa !38
  %19 = tail call i32 @nghttp2_session_send(ptr noundef %.val.i) #21
  %.not.i.i = icmp eq i32 %19, 0
  br i1 %.not.i.i, label %session_recv.exit, label %session_send.exit.i

session_send.exit.i:                              ; preds = %18
  %20 = tail call ptr @nghttp2_strerror(i32 noundef %19) #21
  tail call void (ptr, ...) @warnx(ptr noundef nonnull @.str.10, ptr noundef %20) #21
  br label %21

21:                                               ; preds = %12, %17, %session_send.exit.i
  tail call fastcc void @delete_http2_session_data(ptr noundef nonnull %1)
  br label %session_recv.exit

session_recv.exit:                                ; preds = %18, %21
  ret void
}